Archive member included because of file (symbol)

c:/program files (x86)/atmel/atmel studio 6.0/extensions/atmel/avrgcc/3.4.1.95/avrtoolchain/bin/../lib/gcc/avr/4.6.2/avr51\libgcc.a(_divmodhi4.o)
                              sources/CAN.o (__divmodhi4)
c:/program files (x86)/atmel/atmel studio 6.0/extensions/atmel/avrgcc/3.4.1.95/avrtoolchain/bin/../lib/gcc/avr/4.6.2/avr51\libgcc.a(_exit.o)
                              c:/program files (x86)/atmel/atmel studio 6.0/extensions/atmel/avrgcc/3.4.1.95/avrtoolchain/bin/../lib/gcc/avr/4.6.2/../../../../avr/lib/avr51/crtcan128.o (exit)
c:/program files (x86)/atmel/atmel studio 6.0/extensions/atmel/avrgcc/3.4.1.95/avrtoolchain/bin/../lib/gcc/avr/4.6.2/avr51\libgcc.a(_copy_data.o)
                              main.o (__do_copy_data)
c:/program files (x86)/atmel/atmel studio 6.0/extensions/atmel/avrgcc/3.4.1.95/avrtoolchain/bin/../lib/gcc/avr/4.6.2/avr51\libgcc.a(_clear_bss.o)
                              main.o (__do_clear_bss)
c:/program files (x86)/atmel/atmel studio 6.0/extensions/atmel/avrgcc/3.4.1.95/avrtoolchain/bin/../lib/gcc/avr/4.6.2/avr51\libgcc.a(_udivmodhi4.o)
                              c:/program files (x86)/atmel/atmel studio 6.0/extensions/atmel/avrgcc/3.4.1.95/avrtoolchain/bin/../lib/gcc/avr/4.6.2/avr51\libgcc.a(_divmodhi4.o) (__udivmodhi4)

Allocating common symbols
Common symbol       size              file

event_queue         0x10              sources/Event.o
display_ddram_bottom_row
                    0x1c              sources/Display.o
display_ddram_top_row
                    0x1c              sources/Display.o
led_pins            0xb               sources/adc.o
event_queue_head    0x1               sources/Event.o
led_state           0x2               sources/adc.o
can_queue           0xa               sources/CAN.o
led_port            0xb               sources/adc.o
led_dd              0xb               sources/adc.o
can_queue_head      0x1               sources/CAN.o
can_Status          0x1               sources/CAN.o
address_counter     0x1               sources/Display.o
button_pressed      0x2               sources/Button.o
can_queue_tail      0x1               sources/CAN.o
event_queue_tail    0x1               sources/Event.o
button_current      0x1               sources/Button.o
can_rx              0x2               sources/CAN.o

Memory Configuration

Name             Origin             Length             Attributes
text             0x00000000         0x00020000         xr
data             0x00800100         0x0000ff00         rw !x
eeprom           0x00810000         0x00010000         rw !x
fuse             0x00820000         0x00000400         rw !x
lock             0x00830000         0x00000400         rw !x
signature        0x00840000         0x00000400         rw !x
*default*        0x00000000         0xffffffff

Linker script and memory map

Address of section .data set to 0x800100
LOAD c:/program files (x86)/atmel/atmel studio 6.0/extensions/atmel/avrgcc/3.4.1.95/avrtoolchain/bin/../lib/gcc/avr/4.6.2/../../../../avr/lib/avr51/crtcan128.o
LOAD main.o
LOAD sources/adc.o
LOAD sources/Button.o
LOAD sources/Buzzer.o
LOAD sources/CAN.o
LOAD sources/can_drv.o
LOAD sources/can_lib.o
LOAD sources/Display.o
LOAD sources/Error.o
LOAD sources/Event.o
LOAD sources/Led.o
LOAD sources/MyCommon.o
LOAD sources/Timer.o
LOAD sources/WatchDog.o
START GROUP
LOAD c:/program files (x86)/atmel/atmel studio 6.0/extensions/atmel/avrgcc/3.4.1.95/avrtoolchain/bin/../lib/gcc/avr/4.6.2/../../../../avr/lib/avr51\libm.a
END GROUP
LOAD c:/program files (x86)/atmel/atmel studio 6.0/extensions/atmel/avrgcc/3.4.1.95/avrtoolchain/bin/../lib/gcc/avr/4.6.2/avr51\libgcc.a
LOAD c:/program files (x86)/atmel/atmel studio 6.0/extensions/atmel/avrgcc/3.4.1.95/avrtoolchain/bin/../lib/gcc/avr/4.6.2/../../../../avr/lib/avr51\libc.a
LOAD c:/program files (x86)/atmel/atmel studio 6.0/extensions/atmel/avrgcc/3.4.1.95/avrtoolchain/bin/../lib/gcc/avr/4.6.2/avr51\libgcc.a

.hash
 *(.hash)

.dynsym
 *(.dynsym)

.dynstr
 *(.dynstr)

.gnu.version
 *(.gnu.version)

.gnu.version_d
 *(.gnu.version_d)

.gnu.version_r
 *(.gnu.version_r)

.rel.init
 *(.rel.init)

.rela.init
 *(.rela.init)

.rel.text
 *(.rel.text)
 *(.rel.text.*)
 *(.rel.gnu.linkonce.t*)

.rela.text
 *(.rela.text)
 *(.rela.text.*)
 *(.rela.gnu.linkonce.t*)

.rel.fini
 *(.rel.fini)

.rela.fini
 *(.rela.fini)

.rel.rodata
 *(.rel.rodata)
 *(.rel.rodata.*)
 *(.rel.gnu.linkonce.r*)

.rela.rodata
 *(.rela.rodata)
 *(.rela.rodata.*)
 *(.rela.gnu.linkonce.r*)

.rel.data
 *(.rel.data)
 *(.rel.data.*)
 *(.rel.gnu.linkonce.d*)

.rela.data
 *(.rela.data)
 *(.rela.data.*)
 *(.rela.gnu.linkonce.d*)

.rel.ctors
 *(.rel.ctors)

.rela.ctors
 *(.rela.ctors)

.rel.dtors
 *(.rel.dtors)

.rela.dtors
 *(.rela.dtors)

.rel.got
 *(.rel.got)

.rela.got
 *(.rela.got)

.rel.bss
 *(.rel.bss)

.rela.bss
 *(.rela.bss)

.rel.plt
 *(.rel.plt)

.rela.plt
 *(.rela.plt)

.text           0x00000000     0x1e50
 *(.vectors)
 .vectors       0x00000000       0x94 c:/program files (x86)/atmel/atmel studio 6.0/extensions/atmel/avrgcc/3.4.1.95/avrtoolchain/bin/../lib/gcc/avr/4.6.2/../../../../avr/lib/avr51/crtcan128.o
                0x00000000                __vector_default
                0x00000000                __vectors
 *(.vectors)
 *(.progmem.gcc*)
 *(.progmem*)
                0x00000094                . = ALIGN (0x2)
                0x00000094                __trampolines_start = .
 *(.trampolines)
 .trampolines   0x00000094        0x0 linker stubs
 *(.trampolines*)
                0x00000094                __trampolines_end = .
 *(.jumptables)
 *(.jumptables*)
 *(.lowtext)
 *(.lowtext*)
                0x00000094                __ctors_start = .
 *(.ctors)
                0x00000094                __ctors_end = .
                0x00000094                __dtors_start = .
 *(.dtors)
                0x00000094                __dtors_end = .
 SORT(*)(.ctors)
 SORT(*)(.dtors)
 *(.init0)
 .init0         0x00000094        0x0 c:/program files (x86)/atmel/atmel studio 6.0/extensions/atmel/avrgcc/3.4.1.95/avrtoolchain/bin/../lib/gcc/avr/4.6.2/../../../../avr/lib/avr51/crtcan128.o
                0x00000094                __init
 *(.init0)
 *(.init1)
 *(.init1)
 *(.init2)
 .init2         0x00000094        0xc c:/program files (x86)/atmel/atmel studio 6.0/extensions/atmel/avrgcc/3.4.1.95/avrtoolchain/bin/../lib/gcc/avr/4.6.2/../../../../avr/lib/avr51/crtcan128.o
 *(.init2)
 *(.init3)
 *(.init3)
 *(.init4)
 .init4         0x000000a0       0x1c c:/program files (x86)/atmel/atmel studio 6.0/extensions/atmel/avrgcc/3.4.1.95/avrtoolchain/bin/../lib/gcc/avr/4.6.2/avr51\libgcc.a(_copy_data.o)
                0x000000a0                __do_copy_data
 .init4         0x000000bc       0x10 c:/program files (x86)/atmel/atmel studio 6.0/extensions/atmel/avrgcc/3.4.1.95/avrtoolchain/bin/../lib/gcc/avr/4.6.2/avr51\libgcc.a(_clear_bss.o)
                0x000000bc                __do_clear_bss
 *(.init4)
 *(.init5)
 *(.init5)
 *(.init6)
 *(.init6)
 *(.init7)
 *(.init7)
 *(.init8)
 *(.init8)
 *(.init9)
 .init9         0x000000cc        0x8 c:/program files (x86)/atmel/atmel studio 6.0/extensions/atmel/avrgcc/3.4.1.95/avrtoolchain/bin/../lib/gcc/avr/4.6.2/../../../../avr/lib/avr51/crtcan128.o
 *(.init9)
 *(.text)
 .text          0x000000d4        0x4 c:/program files (x86)/atmel/atmel studio 6.0/extensions/atmel/avrgcc/3.4.1.95/avrtoolchain/bin/../lib/gcc/avr/4.6.2/../../../../avr/lib/avr51/crtcan128.o
                0x000000d4                __vector_22
                0x000000d4                __vector_1
                0x000000d4                __vector_32
                0x000000d4                __vector_34
                0x000000d4                __vector_24
                0x000000d4                __bad_interrupt
                0x000000d4                __vector_6
                0x000000d4                __vector_35
                0x000000d4                __vector_3
                0x000000d4                __vector_23
                0x000000d4                __vector_11
                0x000000d4                __vector_17
                0x000000d4                __vector_19
                0x000000d4                __vector_7
                0x000000d4                __vector_27
                0x000000d4                __vector_5
                0x000000d4                __vector_33
                0x000000d4                __vector_4
                0x000000d4                __vector_9
                0x000000d4                __vector_2
                0x000000d4                __vector_21
                0x000000d4                __vector_36
                0x000000d4                __vector_8
                0x000000d4                __vector_26
                0x000000d4                __vector_10
                0x000000d4                __vector_16
                0x000000d4                __vector_20
 .text          0x000000d8       0x1c main.o
                0x000000d8                main
 .text          0x000000f4       0xc4 sources/adc.o
                0x000000f4                __vector_25
                0x00000146                ADInit
                0x0000017c                ADStart
                0x000001ae                ADGetVal
 .text          0x000001b8        0xa sources/Button.o
                0x000001b8                button_init
 .text          0x000001c2       0x46 sources/Buzzer.o
                0x000001c2                buzzer_init
                0x000001c6                buzzer_on
                0x000001ca                buzzer_off
                0x000001ce                buzzer_buzz
                0x00000206                buzzer_puls
 .text          0x00000208      0x290 sources/CAN.o
                0x00000208                __vector_18
                0x00000298                CANInit
                0x000002c6                CANGetStruct
                0x000002e8                CANStartRx
                0x00000304                CANGetData
                0x00000314                CANSendData
                0x00000386                CANAddSendData
                0x000003d4                CANGetCurrentTx
                0x000003e8                CANSendNext
                0x00000426                CANAbortCMD
                0x0000046e                CANRestartReceive
 .text          0x00000498      0x566 sources/can_drv.o
                0x00000498                can_clear_all_mob
                0x000004bc                can_get_mob_free
                0x000004fc                can_get_mob_status
                0x00000522                can_get_data
                0x00000566                can_auto_baudrate
                0x00000978                Can_conf_bt_flex
                0x00000988                can_fixed_baudrate
 .text          0x000009fe      0xd80 sources/can_lib.o
                0x00000a46                can_init
                0x00000a64                can_off
                0x00000a70                can_cmd
                0x00001624                can_get_status
 .text          0x0000177e        0x4 sources/Display.o
                0x0000177e                display_test
                0x00001780                display_init
 .text          0x00001782       0x2a sources/Error.o
                0x00001782                InitError
                0x00001790                AddError
                0x000017a0                ClearErrors
 .text          0x000017ac       0x80 sources/Event.o
                0x000017ac                EventInit
                0x000017b6                EventAddEvent
                0x000017f2                EventGetNextEvent
                0x0000180e                EventHandleEvent
 .text          0x0000182c      0x1f8 sources/Led.o
                0x0000182c                led_set
                0x00001856                led_clear
                0x0000187e                led_state_set
                0x000018c8                led_init
                0x000019a6                led_is_set
                0x000019cc                led_state_return
                0x00001a06                led_toggle
 .text          0x00001a24       0x66 sources/MyCommon.o
                0x00001a24                main_init
                0x00001a88                main_deinit
 .text          0x00001a8a      0x348 sources/Timer.o
                0x00001a8a                __vector_12
                0x00001aec                __vector_13
                0x00001b4e                __vector_14
                0x00001bb0                __vector_28
                0x00001c12                __vector_29
                0x00001c74                __vector_30
                0x00001cd6                __vector_15
                0x00001cea                __vector_31
                0x00001cfe                Timer1_init
                0x00001d08                Timer3_init
                0x00001d12                TIMER_Timer1_OCR1A_on
                0x00001d32                TIMER_Timer1_OCR1B_on
                0x00001d52                TIMER_Timer1_OCR1C_on
                0x00001d72                TIMER_Timer3_OCR3A_on
                0x00001d92                TIMER_Timer3_OCR3B_on
                0x00001db2                TIMER_Timer3_OCR3C_on
 .text          0x00001dd2       0x2c sources/WatchDog.o
                0x00001dd2                InitWDT
                0x00001dea                CheckWDT
 .text          0x00001dfe        0x0 c:/program files (x86)/atmel/atmel studio 6.0/extensions/atmel/avrgcc/3.4.1.95/avrtoolchain/bin/../lib/gcc/avr/4.6.2/avr51\libgcc.a(_divmodhi4.o)
 .text          0x00001dfe        0x0 c:/program files (x86)/atmel/atmel studio 6.0/extensions/atmel/avrgcc/3.4.1.95/avrtoolchain/bin/../lib/gcc/avr/4.6.2/avr51\libgcc.a(_exit.o)
 .text          0x00001dfe        0x0 c:/program files (x86)/atmel/atmel studio 6.0/extensions/atmel/avrgcc/3.4.1.95/avrtoolchain/bin/../lib/gcc/avr/4.6.2/avr51\libgcc.a(_copy_data.o)
 .text          0x00001dfe        0x0 c:/program files (x86)/atmel/atmel studio 6.0/extensions/atmel/avrgcc/3.4.1.95/avrtoolchain/bin/../lib/gcc/avr/4.6.2/avr51\libgcc.a(_clear_bss.o)
 .text          0x00001dfe        0x0 c:/program files (x86)/atmel/atmel studio 6.0/extensions/atmel/avrgcc/3.4.1.95/avrtoolchain/bin/../lib/gcc/avr/4.6.2/avr51\libgcc.a(_udivmodhi4.o)
                0x00001dfe                . = ALIGN (0x2)
 *(.text.*)
 .text.libgcc   0x00001dfe       0x26 c:/program files (x86)/atmel/atmel studio 6.0/extensions/atmel/avrgcc/3.4.1.95/avrtoolchain/bin/../lib/gcc/avr/4.6.2/avr51\libgcc.a(_divmodhi4.o)
                0x00001dfe                _div
                0x00001dfe                __divmodhi4
 .text.libgcc   0x00001e24        0x0 c:/program files (x86)/atmel/atmel studio 6.0/extensions/atmel/avrgcc/3.4.1.95/avrtoolchain/bin/../lib/gcc/avr/4.6.2/avr51\libgcc.a(_exit.o)
 .text.libgcc   0x00001e24        0x0 c:/program files (x86)/atmel/atmel studio 6.0/extensions/atmel/avrgcc/3.4.1.95/avrtoolchain/bin/../lib/gcc/avr/4.6.2/avr51\libgcc.a(_copy_data.o)
 .text.libgcc   0x00001e24        0x0 c:/program files (x86)/atmel/atmel studio 6.0/extensions/atmel/avrgcc/3.4.1.95/avrtoolchain/bin/../lib/gcc/avr/4.6.2/avr51\libgcc.a(_clear_bss.o)
 .text.libgcc   0x00001e24       0x28 c:/program files (x86)/atmel/atmel studio 6.0/extensions/atmel/avrgcc/3.4.1.95/avrtoolchain/bin/../lib/gcc/avr/4.6.2/avr51\libgcc.a(_udivmodhi4.o)
                0x00001e24                __udivmodhi4
                0x00001e4c                . = ALIGN (0x2)
 *(.fini9)
 .fini9         0x00001e4c        0x0 c:/program files (x86)/atmel/atmel studio 6.0/extensions/atmel/avrgcc/3.4.1.95/avrtoolchain/bin/../lib/gcc/avr/4.6.2/avr51\libgcc.a(_exit.o)
                0x00001e4c                _exit
                0x00001e4c                exit
 *(.fini9)
 *(.fini8)
 *(.fini8)
 *(.fini7)
 *(.fini7)
 *(.fini6)
 *(.fini6)
 *(.fini5)
 *(.fini5)
 *(.fini4)
 *(.fini4)
 *(.fini3)
 *(.fini3)
 *(.fini2)
 *(.fini2)
 *(.fini1)
 *(.fini1)
 *(.fini0)
 .fini0         0x00001e4c        0x4 c:/program files (x86)/atmel/atmel studio 6.0/extensions/atmel/avrgcc/3.4.1.95/avrtoolchain/bin/../lib/gcc/avr/4.6.2/avr51\libgcc.a(_exit.o)
 *(.fini0)
                0x00001e50                _etext = .

.data           0x00800100       0x14 load address 0x00001e50
                0x00800100                PROVIDE (__data_start, .)
 *(.data)
 .data          0x00800100        0x0 c:/program files (x86)/atmel/atmel studio 6.0/extensions/atmel/avrgcc/3.4.1.95/avrtoolchain/bin/../lib/gcc/avr/4.6.2/../../../../avr/lib/avr51/crtcan128.o
 .data          0x00800100        0x0 main.o
 .data          0x00800100        0x0 sources/adc.o
 .data          0x00800100        0x0 sources/Button.o
 .data          0x00800100        0x0 sources/Buzzer.o
 .data          0x00800100        0x0 sources/CAN.o
 .data          0x00800100        0x0 sources/can_drv.o
 .data          0x00800100        0x0 sources/can_lib.o
 .data          0x00800100       0x14 sources/Display.o
                0x00800100                test
 .data          0x00800114        0x0 sources/Error.o
 .data          0x00800114        0x0 sources/Event.o
 .data          0x00800114        0x0 sources/Led.o
 .data          0x00800114        0x0 sources/MyCommon.o
 .data          0x00800114        0x0 sources/Timer.o
 .data          0x00800114        0x0 sources/WatchDog.o
 .data          0x00800114        0x0 c:/program files (x86)/atmel/atmel studio 6.0/extensions/atmel/avrgcc/3.4.1.95/avrtoolchain/bin/../lib/gcc/avr/4.6.2/avr51\libgcc.a(_divmodhi4.o)
 .data          0x00800114        0x0 c:/program files (x86)/atmel/atmel studio 6.0/extensions/atmel/avrgcc/3.4.1.95/avrtoolchain/bin/../lib/gcc/avr/4.6.2/avr51\libgcc.a(_exit.o)
 .data          0x00800114        0x0 c:/program files (x86)/atmel/atmel studio 6.0/extensions/atmel/avrgcc/3.4.1.95/avrtoolchain/bin/../lib/gcc/avr/4.6.2/avr51\libgcc.a(_copy_data.o)
 .data          0x00800114        0x0 c:/program files (x86)/atmel/atmel studio 6.0/extensions/atmel/avrgcc/3.4.1.95/avrtoolchain/bin/../lib/gcc/avr/4.6.2/avr51\libgcc.a(_clear_bss.o)
 .data          0x00800114        0x0 c:/program files (x86)/atmel/atmel studio 6.0/extensions/atmel/avrgcc/3.4.1.95/avrtoolchain/bin/../lib/gcc/avr/4.6.2/avr51\libgcc.a(_udivmodhi4.o)
 *(.data*)
 *(.rodata)
 *(.rodata*)
 *(.gnu.linkonce.d*)
                0x00800114                . = ALIGN (0x2)
                0x00800114                _edata = .
                0x00800114                PROVIDE (__data_end, .)

.bss            0x00800114       0x82
                0x00800114                PROVIDE (__bss_start, .)
 *(.bss)
 .bss           0x00800114        0x0 c:/program files (x86)/atmel/atmel studio 6.0/extensions/atmel/avrgcc/3.4.1.95/avrtoolchain/bin/../lib/gcc/avr/4.6.2/../../../../avr/lib/avr51/crtcan128.o
 .bss           0x00800114        0x0 main.o
 .bss           0x00800114        0x0 sources/adc.o
 .bss           0x00800114        0x0 sources/Button.o
 .bss           0x00800114        0x0 sources/Buzzer.o
 .bss           0x00800114        0x0 sources/CAN.o
 .bss           0x00800114        0x0 sources/can_drv.o
 .bss           0x00800114        0x0 sources/can_lib.o
 .bss           0x00800114        0x0 sources/Display.o
 .bss           0x00800114        0x2 sources/Error.o
 .bss           0x00800116        0x0 sources/Event.o
 .bss           0x00800116        0x0 sources/Led.o
 .bss           0x00800116        0x0 sources/MyCommon.o
 .bss           0x00800116        0x0 sources/Timer.o
 .bss           0x00800116        0x0 sources/WatchDog.o
 .bss           0x00800116        0x0 c:/program files (x86)/atmel/atmel studio 6.0/extensions/atmel/avrgcc/3.4.1.95/avrtoolchain/bin/../lib/gcc/avr/4.6.2/avr51\libgcc.a(_divmodhi4.o)
 .bss           0x00800116        0x0 c:/program files (x86)/atmel/atmel studio 6.0/extensions/atmel/avrgcc/3.4.1.95/avrtoolchain/bin/../lib/gcc/avr/4.6.2/avr51\libgcc.a(_exit.o)
 .bss           0x00800116        0x0 c:/program files (x86)/atmel/atmel studio 6.0/extensions/atmel/avrgcc/3.4.1.95/avrtoolchain/bin/../lib/gcc/avr/4.6.2/avr51\libgcc.a(_copy_data.o)
 .bss           0x00800116        0x0 c:/program files (x86)/atmel/atmel studio 6.0/extensions/atmel/avrgcc/3.4.1.95/avrtoolchain/bin/../lib/gcc/avr/4.6.2/avr51\libgcc.a(_clear_bss.o)
 .bss           0x00800116        0x0 c:/program files (x86)/atmel/atmel studio 6.0/extensions/atmel/avrgcc/3.4.1.95/avrtoolchain/bin/../lib/gcc/avr/4.6.2/avr51\libgcc.a(_udivmodhi4.o)
 *(.bss*)
 *(COMMON)
 COMMON         0x00800116       0x23 sources/adc.o
                0x00800116                led_pins
                0x00800121                led_state
                0x00800123                led_port
                0x0080012e                led_dd
 COMMON         0x00800139        0x3 sources/Button.o
                0x00800139                button_pressed
                0x0080013b                button_current
 COMMON         0x0080013c        0xf sources/CAN.o
                0x0080013c                can_queue
                0x00800146                can_queue_head
                0x00800147                can_Status
                0x00800148                can_queue_tail
                0x00800149                can_rx
 COMMON         0x0080014b       0x39 sources/Display.o
                0x0080014b                display_ddram_bottom_row
                0x00800167                display_ddram_top_row
                0x00800183                address_counter
 COMMON         0x00800184       0x12 sources/Event.o
                0x00800184                event_queue
                0x00800194                event_queue_head
                0x00800195                event_queue_tail
                0x00800196                PROVIDE (__bss_end, .)
                0x00001e50                __data_load_start = LOADADDR (.data)
                0x00001e64                __data_load_end = (__data_load_start + SIZEOF (.data))

.noinit         0x00800196        0x0
                0x00800196                PROVIDE (__noinit_start, .)
 *(.noinit*)
                0x00800196                PROVIDE (__noinit_end, .)
                0x00800196                _end = .
                0x00800196                PROVIDE (__heap_start, .)

.eeprom         0x00810000        0x0
 *(.eeprom*)
                0x00810000                __eeprom_end = .

.fuse
 *(.fuse)
 *(.lfuse)
 *(.hfuse)
 *(.efuse)

.lock
 *(.lock*)

.signature
 *(.signature*)

.stab           0x00000000      0x6cc
 *(.stab)
 .stab          0x00000000      0x6cc c:/program files (x86)/atmel/atmel studio 6.0/extensions/atmel/avrgcc/3.4.1.95/avrtoolchain/bin/../lib/gcc/avr/4.6.2/../../../../avr/lib/avr51/crtcan128.o

.stabstr        0x00000000       0x85
 *(.stabstr)
 .stabstr       0x00000000       0x85 c:/program files (x86)/atmel/atmel studio 6.0/extensions/atmel/avrgcc/3.4.1.95/avrtoolchain/bin/../lib/gcc/avr/4.6.2/../../../../avr/lib/avr51/crtcan128.o

.stab.excl
 *(.stab.excl)

.stab.exclstr
 *(.stab.exclstr)

.stab.index
 *(.stab.index)

.stab.indexstr
 *(.stab.indexstr)

.comment
 *(.comment)

.debug
 *(.debug)

.line
 *(.line)

.debug_srcinfo
 *(.debug_srcinfo)

.debug_sfnames
 *(.debug_sfnames)

.debug_aranges  0x00000000      0x260
 *(.debug_aranges)
 .debug_aranges
                0x00000000       0x20 main.o
 .debug_aranges
                0x00000020       0x20 sources/adc.o
 .debug_aranges
                0x00000040       0x20 sources/Button.o
 .debug_aranges
                0x00000060       0x20 sources/Buzzer.o
 .debug_aranges
                0x00000080       0x20 sources/CAN.o
 .debug_aranges
                0x000000a0       0x20 sources/can_drv.o
 .debug_aranges
                0x000000c0       0x20 sources/can_lib.o
 .debug_aranges
                0x000000e0       0x20 sources/Display.o
 .debug_aranges
                0x00000100       0x20 sources/Error.o
 .debug_aranges
                0x00000120       0x20 sources/Event.o
 .debug_aranges
                0x00000140       0x20 sources/Led.o
 .debug_aranges
                0x00000160       0x20 sources/MyCommon.o
 .debug_aranges
                0x00000180       0x20 sources/Timer.o
 .debug_aranges
                0x000001a0       0x20 sources/WatchDog.o
 .debug_aranges
                0x000001c0       0x20 c:/program files (x86)/atmel/atmel studio 6.0/extensions/atmel/avrgcc/3.4.1.95/avrtoolchain/bin/../lib/gcc/avr/4.6.2/avr51\libgcc.a(_divmodhi4.o)
 .debug_aranges
                0x000001e0       0x20 c:/program files (x86)/atmel/atmel studio 6.0/extensions/atmel/avrgcc/3.4.1.95/avrtoolchain/bin/../lib/gcc/avr/4.6.2/avr51\libgcc.a(_exit.o)
 .debug_aranges
                0x00000200       0x20 c:/program files (x86)/atmel/atmel studio 6.0/extensions/atmel/avrgcc/3.4.1.95/avrtoolchain/bin/../lib/gcc/avr/4.6.2/avr51\libgcc.a(_copy_data.o)
 .debug_aranges
                0x00000220       0x20 c:/program files (x86)/atmel/atmel studio 6.0/extensions/atmel/avrgcc/3.4.1.95/avrtoolchain/bin/../lib/gcc/avr/4.6.2/avr51\libgcc.a(_clear_bss.o)
 .debug_aranges
                0x00000240       0x20 c:/program files (x86)/atmel/atmel studio 6.0/extensions/atmel/avrgcc/3.4.1.95/avrtoolchain/bin/../lib/gcc/avr/4.6.2/avr51\libgcc.a(_udivmodhi4.o)

.debug_pubnames
 *(.debug_pubnames)

.debug_info     0x00000000     0x3ba9
 *(.debug_info)
 .debug_info    0x00000000      0x3cc main.o
 .debug_info    0x000003cc      0x490 sources/adc.o
 .debug_info    0x0000085c       0xba sources/Button.o
 .debug_info    0x00000916      0x10e sources/Buzzer.o
 .debug_info    0x00000a24      0x6b6 sources/CAN.o
 .debug_info    0x000010da      0x6cf sources/can_drv.o
 .debug_info    0x000017a9      0x502 sources/can_lib.o
 .debug_info    0x00001cab      0x11e sources/Display.o
 .debug_info    0x00001dc9      0x45b sources/Error.o
 .debug_info    0x00002224      0x521 sources/Event.o
 .debug_info    0x00002745      0x241 sources/Led.o
 .debug_info    0x00002986      0x435 sources/MyCommon.o
 .debug_info    0x00002dbb      0x591 sources/Timer.o
 .debug_info    0x0000334c      0x407 sources/WatchDog.o
 .debug_info    0x00003753       0xde c:/program files (x86)/atmel/atmel studio 6.0/extensions/atmel/avrgcc/3.4.1.95/avrtoolchain/bin/../lib/gcc/avr/4.6.2/avr51\libgcc.a(_divmodhi4.o)
 .debug_info    0x00003831       0xde c:/program files (x86)/atmel/atmel studio 6.0/extensions/atmel/avrgcc/3.4.1.95/avrtoolchain/bin/../lib/gcc/avr/4.6.2/avr51\libgcc.a(_exit.o)
 .debug_info    0x0000390f       0xde c:/program files (x86)/atmel/atmel studio 6.0/extensions/atmel/avrgcc/3.4.1.95/avrtoolchain/bin/../lib/gcc/avr/4.6.2/avr51\libgcc.a(_copy_data.o)
 .debug_info    0x000039ed       0xde c:/program files (x86)/atmel/atmel studio 6.0/extensions/atmel/avrgcc/3.4.1.95/avrtoolchain/bin/../lib/gcc/avr/4.6.2/avr51\libgcc.a(_clear_bss.o)
 .debug_info    0x00003acb       0xde c:/program files (x86)/atmel/atmel studio 6.0/extensions/atmel/avrgcc/3.4.1.95/avrtoolchain/bin/../lib/gcc/avr/4.6.2/avr51\libgcc.a(_udivmodhi4.o)
 *(.gnu.linkonce.wi.*)

.debug_abbrev   0x00000000     0x12db
 *(.debug_abbrev)
 .debug_abbrev  0x00000000      0x146 main.o
 .debug_abbrev  0x00000146      0x182 sources/adc.o
 .debug_abbrev  0x000002c8       0x6e sources/Button.o
 .debug_abbrev  0x00000336       0xa5 sources/Buzzer.o
 .debug_abbrev  0x000003db      0x1c8 sources/CAN.o
 .debug_abbrev  0x000005a3      0x213 sources/can_drv.o
 .debug_abbrev  0x000007b6      0x202 sources/can_lib.o
 .debug_abbrev  0x000009b8       0x95 sources/Display.o
 .debug_abbrev  0x00000a4d      0x17a sources/Error.o
 .debug_abbrev  0x00000bc7      0x1aa sources/Event.o
 .debug_abbrev  0x00000d71       0xf8 sources/Led.o
 .debug_abbrev  0x00000e69      0x150 sources/MyCommon.o
 .debug_abbrev  0x00000fb9      0x171 sources/Timer.o
 .debug_abbrev  0x0000112a      0x14d sources/WatchDog.o
 .debug_abbrev  0x00001277       0x14 c:/program files (x86)/atmel/atmel studio 6.0/extensions/atmel/avrgcc/3.4.1.95/avrtoolchain/bin/../lib/gcc/avr/4.6.2/avr51\libgcc.a(_divmodhi4.o)
 .debug_abbrev  0x0000128b       0x14 c:/program files (x86)/atmel/atmel studio 6.0/extensions/atmel/avrgcc/3.4.1.95/avrtoolchain/bin/../lib/gcc/avr/4.6.2/avr51\libgcc.a(_exit.o)
 .debug_abbrev  0x0000129f       0x14 c:/program files (x86)/atmel/atmel studio 6.0/extensions/atmel/avrgcc/3.4.1.95/avrtoolchain/bin/../lib/gcc/avr/4.6.2/avr51\libgcc.a(_copy_data.o)
 .debug_abbrev  0x000012b3       0x14 c:/program files (x86)/atmel/atmel studio 6.0/extensions/atmel/avrgcc/3.4.1.95/avrtoolchain/bin/../lib/gcc/avr/4.6.2/avr51\libgcc.a(_clear_bss.o)
 .debug_abbrev  0x000012c7       0x14 c:/program files (x86)/atmel/atmel studio 6.0/extensions/atmel/avrgcc/3.4.1.95/avrtoolchain/bin/../lib/gcc/avr/4.6.2/avr51\libgcc.a(_udivmodhi4.o)

.debug_line     0x00000000     0x187d
 *(.debug_line)
 .debug_line    0x00000000       0x92 main.o
 .debug_line    0x00000092      0x162 sources/adc.o
 .debug_line    0x000001f4       0xfe sources/Button.o
 .debug_line    0x000002f2       0xef sources/Buzzer.o
 .debug_line    0x000003e1      0x1f2 sources/CAN.o
 .debug_line    0x000005d3      0x341 sources/can_drv.o
 .debug_line    0x00000914      0x30c sources/can_lib.o
 .debug_line    0x00000c20      0x102 sources/Display.o
 .debug_line    0x00000d22      0x19c sources/Error.o
 .debug_line    0x00000ebe      0x153 sources/Event.o
 .debug_line    0x00001011      0x162 sources/Led.o
 .debug_line    0x00001173      0x15a sources/MyCommon.o
 .debug_line    0x000012cd      0x195 sources/Timer.o
 .debug_line    0x00001462      0x13c sources/WatchDog.o
 .debug_line    0x0000159e       0x99 c:/program files (x86)/atmel/atmel studio 6.0/extensions/atmel/avrgcc/3.4.1.95/avrtoolchain/bin/../lib/gcc/avr/4.6.2/avr51\libgcc.a(_divmodhi4.o)
 .debug_line    0x00001637       0x88 c:/program files (x86)/atmel/atmel studio 6.0/extensions/atmel/avrgcc/3.4.1.95/avrtoolchain/bin/../lib/gcc/avr/4.6.2/avr51\libgcc.a(_exit.o)
 .debug_line    0x000016bf       0x96 c:/program files (x86)/atmel/atmel studio 6.0/extensions/atmel/avrgcc/3.4.1.95/avrtoolchain/bin/../lib/gcc/avr/4.6.2/avr51\libgcc.a(_copy_data.o)
 .debug_line    0x00001755       0x8e c:/program files (x86)/atmel/atmel studio 6.0/extensions/atmel/avrgcc/3.4.1.95/avrtoolchain/bin/../lib/gcc/avr/4.6.2/avr51\libgcc.a(_clear_bss.o)
 .debug_line    0x000017e3       0x9a c:/program files (x86)/atmel/atmel studio 6.0/extensions/atmel/avrgcc/3.4.1.95/avrtoolchain/bin/../lib/gcc/avr/4.6.2/avr51\libgcc.a(_udivmodhi4.o)

.debug_frame    0x00000000      0x8f8
 *(.debug_frame)
 .debug_frame   0x00000000       0x24 main.o
 .debug_frame   0x00000024       0x9c sources/adc.o
 .debug_frame   0x000000c0       0x24 sources/Button.o
 .debug_frame   0x000000e4       0x6c sources/Buzzer.o
 .debug_frame   0x00000150      0x128 sources/CAN.o
 .debug_frame   0x00000278       0xf0 sources/can_drv.o
 .debug_frame   0x00000368       0xa8 sources/can_lib.o
 .debug_frame   0x00000410       0x34 sources/Display.o
 .debug_frame   0x00000444       0x44 sources/Error.o
 .debug_frame   0x00000488       0x60 sources/Event.o
 .debug_frame   0x000004e8       0xcc sources/Led.o
 .debug_frame   0x000005b4       0x34 sources/MyCommon.o
 .debug_frame   0x000005e8      0x2dc sources/Timer.o
 .debug_frame   0x000008c4       0x34 sources/WatchDog.o

.debug_str      0x00000000      0xc10
 *(.debug_str)
 .debug_str     0x00000000      0x2b6 main.o
                                0x31b (size before relaxing)
 .debug_str     0x000002b6      0x1ce sources/adc.o
                                0x3c5 (size before relaxing)
 .debug_str     0x00000484       0x3e sources/Button.o
                                0x117 (size before relaxing)
 .debug_str     0x000004c2       0x5d sources/Buzzer.o
                                0x12d (size before relaxing)
 .debug_str     0x0000051f      0x19b sources/CAN.o
                                0x505 (size before relaxing)
 .debug_str     0x000006ba      0x1a4 sources/can_drv.o
                                0x4c0 (size before relaxing)
 .debug_str     0x0000085e       0x6d sources/can_lib.o
                                0x353 (size before relaxing)
 .debug_str     0x000008cb       0x87 sources/Display.o
                                0x161 (size before relaxing)
 .debug_str     0x00000952       0x49 sources/Error.o
                                0x376 (size before relaxing)
 .debug_str     0x0000099b       0x8f sources/Event.o
                                0x44f (size before relaxing)
 .debug_str     0x00000a2a       0x68 sources/Led.o
                                0x172 (size before relaxing)
 .debug_str     0x00000a92       0x36 sources/MyCommon.o
                                0x3d4 (size before relaxing)
 .debug_str     0x00000ac8      0x121 sources/Timer.o
                                0x495 (size before relaxing)
 .debug_str     0x00000be9       0x27 sources/WatchDog.o
                                0x354 (size before relaxing)

.debug_loc      0x00000000     0x17f2
 *(.debug_loc)
 .debug_loc     0x00000000       0xfc sources/adc.o
 .debug_loc     0x000000fc       0x64 sources/Buzzer.o
 .debug_loc     0x00000160      0x201 sources/CAN.o
 .debug_loc     0x00000361      0x8dc sources/can_drv.o
 .debug_loc     0x00000c3d      0x3f1 sources/can_lib.o
 .debug_loc     0x0000102e       0x2b sources/Error.o
 .debug_loc     0x00001059       0x84 sources/Event.o
 .debug_loc     0x000010dd      0x1f5 sources/Led.o
 .debug_loc     0x000012d2      0x520 sources/Timer.o

.debug_macinfo
 *(.debug_macinfo)
OUTPUT(Dashboard.elf elf32-avr)
LOAD linker stubs
